target datalayout = "e-m:e-p270:32:32-p271:32:32-p272:64:64-i64:64-i128:128-f80:128-n8:16:32:64-S128"
target triple = "x86_64-pc-linux-gnu"

%struct._zend_array = type { %struct._zend_refcounted_h, %union.anon.4, i32, %union.anon.6, i32, i32, i32, i32, i64, ptr }
%struct._zend_refcounted_h = type { i32, %union.anon.3 }
%union.anon.3 = type { i32 }
%union.anon.4 = type { i32 }
%union.anon.6 = type { ptr }
%struct._zval_struct = type { %union._zend_value, %union.anon, %union.anon.2 }
%union._zend_value = type { i64 }
%union.anon = type { i32 }
%union.anon.2 = type { i32 }
%struct._zend_attribute = type { ptr, ptr, i32, i32, i32, i32, [1 x %struct.zend_attribute_arg] }
%struct.zend_attribute_arg = type { ptr, %struct._zval_struct }
%struct._zend_class_entry = type { i8, ptr, %union.anon.7, i32, i32, i32, i32, ptr, ptr, ptr, %struct._zend_array, %struct._zend_array, %struct._zend_array, ptr, ptr, ptr, ptr, ptr, ptr, ptr, ptr, ptr, ptr, ptr, ptr, ptr, ptr, ptr, ptr, ptr, ptr, ptr, %union.anon.8, ptr, ptr, ptr, ptr, i32, i32, %union.anon.9, ptr, ptr, ptr, ptr, i32, ptr, ptr, %union.anon.10 }
%union.anon.7 = type { ptr }
%union.anon.8 = type { ptr }
%union.anon.9 = type { ptr }
%union.anon.10 = type { %struct.anon.11 }
%struct.anon.11 = type { ptr, i32, i32 }

@zend_ce_attribute = global ptr null, align 8

; Function Attrs: nounwind uwtable
define ptr @zend_internal_attribute_register(ptr noundef %0, i32 noundef %1) #0 {
  %3 = alloca ptr, align 8
  %4 = alloca ptr, align 8
  %5 = alloca i32, align 4
  %6 = alloca i32, align 4
  %7 = alloca ptr, align 8
  %8 = alloca i32, align 4
  %9 = alloca ptr, align 8
  %10 = alloca ptr, align 8
  store ptr %0, ptr %7, align 8
  store i32 %1, ptr %8, align 4
  %11 = load ptr, ptr %7, align 8
  %12 = load ptr, ptr @zend_ce_attribute, align 8
  %13 = getelementptr inbounds %struct._zend_class_entry, ptr %12, i32 0, i32 1
  %14 = load ptr, ptr %13, align 8
  store ptr %11, ptr %3, align 8
  store ptr %14, ptr %4, align 8
  store i32 1, ptr %5, align 4
  %15 = load ptr, ptr %3, align 8
  %16 = load i8, ptr %15, align 8
  %17 = sext i8 %16 to i32
  %18 = icmp ne i32 %17, 2
  %19 = select i1 %18, i32 1, i32 0
  store i32 %19, ptr %6, align 4
  %20 = load ptr, ptr %3, align 8
  %21 = getelementptr inbounds %struct._zend_class_entry, ptr %20, i32 0, i32 43
  %22 = load ptr, ptr %4, align 8
  %23 = load i32, ptr %5, align 4
  %24 = load i32, ptr %6, align 4
  %25 = call ptr @zend_add_attribute(ptr noundef %21, ptr noundef %22, i32 noundef %23, i32 noundef %24, i32 noundef 0, i32 noundef 0)
  store ptr %25, ptr %9, align 8
  br label %26

26:                                               ; preds = %2
  %27 = load ptr, ptr %9, align 8
  %28 = getelementptr inbounds %struct._zend_attribute, ptr %27, i32 0, i32 6
  %29 = getelementptr inbounds [1 x %struct.zend_attribute_arg], ptr %28, i64 0, i64 0
  %30 = getelementptr inbounds %struct.zend_attribute_arg, ptr %29, i32 0, i32 1
  store ptr %30, ptr %10, align 8
  %31 = load i32, ptr %8, align 4
  %32 = zext i32 %31 to i64
  %33 = load ptr, ptr %10, align 8
  %34 = getelementptr inbounds %struct._zval_struct, ptr %33, i32 0, i32 0
  store i64 %32, ptr %34, align 8
  %35 = load ptr, ptr %10, align 8
  %36 = getelementptr inbounds %struct._zval_struct, ptr %35, i32 0, i32 1
  store i32 4, ptr %36, align 8
  br label %37

37:                                               ; preds = %26
  %38 = load ptr, ptr %7, align 8
  %39 = call ptr @zend_mark_internal_attribute(ptr noundef %38)
  ret ptr %39
}