; Function Attrs: nounwind uwtable
define noundef ptr @zend_internal_attribute_register(ptr noundef %0, i32 noundef %1) local_unnamed_addr #0 {
  %3 = load ptr, ptr @zend_ce_attribute, align 8
  %4 = getelementptr inbounds i8, ptr %3, i64 8
  %5 = load ptr, ptr %4, align 8
  %6 = load i8, ptr %0, align 8
  %.not = icmp ne i8 %6, 2
  %7 = zext i1 %.not to i32
  %8 = getelementptr inbounds i8, ptr %0, i64 464
  %9 = tail call ptr @zend_add_attribute(ptr noundef nonnull %8, ptr noundef %5, i32 noundef 1, i32 noundef %7, i32 noundef 0, i32 noundef 0)
  %10 = getelementptr inbounds i8, ptr %9, i64 40
  %11 = zext i32 %1 to i64
  store i64 %11, ptr %10, align 8
  %12 = getelementptr inbounds i8, ptr %9, i64 48
  store i32 4, ptr %12, align 8
  %13 = tail call ptr @zend_mark_internal_attribute(ptr noundef nonnull %0)
  ret ptr %13
}